target datalayout = "e-m:e-p270:32:32-p271:32:32-p272:64:64-i64:64-i128:128-f80:128-n8:16:32:64-S128"
target triple = "x86_64-pc-linux-gnu"

%struct.H5F_shared_t = type { ptr, ptr, ptr, i8, i32, i32, %struct.H5F_mtab_t, ptr, i8, i8, i64, i32, i32, i64, i64, ptr, ptr, %struct.H5AC_cache_config_t, %struct.H5AC_cache_image_config_t, i8, i8, ptr, i64, i32, i8, i64, i64, double, i64, i64, i64, i32, i32, i32, i8, i32, ptr, ptr, ptr, ptr, i8, i8, i8, i64, i64, ptr, ptr, i32, i64, i8, i32, i8, i64, i8, [13 x i32], [13 x i64], [13 x ptr], i8, i64, i64, [7 x i32], [7 x i32], %struct.H5F_blk_aggr_t, %struct.H5F_blk_aggr_t, i64, i64, %struct.H5F_meta_accum_t, i32, i32, [30 x ptr], %struct.H5F_object_flush_t, i8, ptr }
%struct.H5F_mtab_t = type { i32, i32, ptr }
%struct.H5AC_cache_config_t = type { i32, i8, i8, i8, [1025 x i8], i8, i8, i64, double, i64, i64, i64, i32, double, double, i8, i64, i32, double, double, i32, double, double, i8, i64, i32, i8, double, i64, i32 }
%struct.H5AC_cache_image_config_t = type { i32, i8, i8, i32 }
%struct.H5F_blk_aggr_t = type { i64, i64, i64, i64, i64 }
%struct.H5F_meta_accum_t = type { ptr, i64, i64, i64, i64, i64, i8 }
%struct.H5F_object_flush_t = type { ptr, ptr }

@.str = private unnamed_addr constant [99 x i8] c"generated/home/dtcxzyw/WorkSpace/Projects/compilers/llvm-opt-benchmark/bench/hdf5/hdf5/src/H5Fio.c\00", align 1
@H5E_IO_g = external global i64, align 8
@H5E_WRITEERROR_g = external global i64, align 8
@__func__.H5F_shared_select_write = private unnamed_addr constant [24 x i8] c"H5F_shared_select_write\00", align 1
@.str.5 = private unnamed_addr constant [43 x i8] c"selection write through file driver failed\00", align 1

; Function Attrs: nounwind uwtable
define i32 @H5F_shared_select_write(ptr noundef %0, i32 noundef %1, i32 noundef %2, ptr noundef %3, ptr noundef %4, ptr noundef %5, ptr noundef %6, ptr noundef %7) #0 {
  %9 = alloca ptr, align 8
  %10 = alloca i32, align 4
  %11 = alloca i32, align 4
  %12 = alloca ptr, align 8
  %13 = alloca ptr, align 8
  %14 = alloca ptr, align 8
  %15 = alloca ptr, align 8
  %16 = alloca ptr, align 8
  %17 = alloca i32, align 4
  %18 = alloca i32, align 4
  %19 = alloca i8, align 1
  store ptr %0, ptr %9, align 8
  store i32 %1, ptr %10, align 4
  store i32 %2, ptr %11, align 4
  store ptr %3, ptr %12, align 8
  store ptr %4, ptr %13, align 8
  store ptr %5, ptr %14, align 8
  store ptr %6, ptr %15, align 8
  store ptr %7, ptr %16, align 8
  store i32 0, ptr %18, align 4
  store i8 0, ptr %19, align 1
  %20 = load i32, ptr %10, align 4
  %21 = icmp eq i32 %20, 4
  br i1 %21, label %22, label %23

22:                                               ; preds = %8
  br label %25

23:                                               ; preds = %8
  %24 = load i32, ptr %10, align 4
  br label %25

25:                                               ; preds = %23, %22
  %26 = phi i32 [ 3, %22 ], [ %24, %23 ]
  store i32 %26, ptr %17, align 4
  %27 = load ptr, ptr %9, align 8
  %28 = getelementptr inbounds %struct.H5F_shared_t, ptr %27, i32 0, i32 0
  %29 = load ptr, ptr %28, align 8
  %30 = load i32, ptr %17, align 4
  %31 = load i32, ptr %11, align 4
  %32 = load ptr, ptr %12, align 8
  %33 = load ptr, ptr %13, align 8
  %34 = load ptr, ptr %14, align 8
  %35 = load ptr, ptr %15, align 8
  %36 = load ptr, ptr %16, align 8
  %37 = call i32 @H5FD_write_selection(ptr noundef %29, i32 noundef %30, i32 noundef %31, ptr noundef %32, ptr noundef %33, ptr noundef %34, ptr noundef %35, ptr noundef %36)
  %38 = icmp slt i32 %37, 0
  br i1 %38, label %39, label %54

39:                                               ; preds = %25
  br label %40

40:                                               ; preds = %39
  br label %41

41:                                               ; preds = %40
  br label %42

42:                                               ; preds = %41
  %43 = load i64, ptr @H5E_IO_g, align 8
  %44 = load i64, ptr @H5E_WRITEERROR_g, align 8
  %45 = call i32 (ptr, ptr, i32, i64, i64, ptr, ...) @H5E_printf_stack(ptr noundef @.str, ptr noundef @__func__.H5F_shared_select_write, i32 noundef 302, i64 noundef %43, i64 noundef %44, ptr noundef @.str.5)
  br label %46

46:                                               ; preds = %42
  store i8 1, ptr %19, align 1
  %47 = load i8, ptr %19, align 1
  %48 = trunc i8 %47 to i1
  %49 = zext i1 %48 to i8
  store i8 %49, ptr %19, align 1
  br label %50

50:                                               ; preds = %46
  br label %51

51:                                               ; preds = %50
  store i32 -1, ptr %18, align 4
  br label %55

52:                                               ; No predecessors!
  br label %53

53:                                               ; preds = %52
  br label %54

54:                                               ; preds = %53, %25
  br label %55

55:                                               ; preds = %54, %51
  %56 = load i32, ptr %18, align 4
  ret i32 %56
}