; Function Attrs: nounwind uwtable
define range(i32 -1, 1) i32 @H5F_shared_select_write(ptr nocapture noundef readonly %0, i32 noundef %1, i32 noundef %2, ptr noundef %3, ptr noundef %4, ptr noundef %5, ptr noundef %6, ptr noundef %7) local_unnamed_addr #0 {
  %9 = icmp eq i32 %1, 4
  %10 = select i1 %9, i32 3, i32 %1
  %11 = load ptr, ptr %0, align 8
  %12 = tail call i32 @H5FD_write_selection(ptr noundef %11, i32 noundef %10, i32 noundef %2, ptr noundef %3, ptr noundef %4, ptr noundef %5, ptr noundef %6, ptr noundef %7) #2
  %13 = icmp slt i32 %12, 0
  br i1 %13, label %14, label %18

14:                                               ; preds = %8
  %15 = load i64, ptr @H5E_IO_g, align 8
  %16 = load i64, ptr @H5E_WRITEERROR_g, align 8
  %17 = tail call i32 (ptr, ptr, i32, i64, i64, ptr, ...) @H5E_printf_stack(ptr noundef nonnull @.str, ptr noundef nonnull @__func__.H5F_shared_select_write, i32 noundef 302, i64 noundef %15, i64 noundef %16, ptr noundef nonnull @.str.5) #2
  br label %18

18:                                               ; preds = %8, %14
  %.0 = phi i32 [ -1, %14 ], [ 0, %8 ]
  ret i32 %.0
}